target datalayout = "e-m:e-p270:32:32-p271:32:32-p272:64:64-i64:64-i128:128-f80:128-n8:16:32:64-S128"
target triple = "x86_64-pc-linux-gnu"

@retry_list = internal global ptr null, align 8

; Function Attrs: nounwind uwtable
define dso_local i32 @retry_list_size() #0 {
  %1 = alloca i32, align 4
  %2 = load ptr, ptr @retry_list, align 8
  %3 = icmp eq ptr %2, null
  br i1 %3, label %4, label %5

4:                                                ; preds = %0
  store i32 0, ptr %1, align 4
  br label %8

5:                                                ; preds = %0
  %6 = load ptr, ptr @retry_list, align 8
  %7 = call i32 @list_count(ptr noundef %6)
  store i32 %7, ptr %1, align 4
  br label %8

8:                                                ; preds = %5, %4
  %9 = load i32, ptr %1, align 4
  ret i32 %9
}