; Function Attrs: nounwind uwtable
define dso_local i32 @retry_list_size() local_unnamed_addr #0 {
  %1 = load ptr, ptr @retry_list, align 8
  %2 = icmp eq ptr %1, null
  br i1 %2, label %5, label %3

3:                                                ; preds = %0
  %4 = tail call i32 @list_count(ptr noundef nonnull %1) #14
  br label %5

5:                                                ; preds = %0, %3
  %.0 = phi i32 [ %4, %3 ], [ 0, %0 ]
  ret i32 %.0
}